target datalayout = "e-m:e-p270:32:32-p271:32:32-p272:64:64-i64:64-i128:128-f80:128-n8:16:32:64-S128"
target triple = "x86_64-pc-linux-gnu"

%struct._object = type { %union.anon, ptr }
%union.anon = type { i64 }
%struct.PyModuleObject = type { %struct._object, ptr, ptr, ptr, ptr, ptr }
%struct.PyModuleDef = type { %struct.PyModuleDef_Base, ptr, ptr, i64, ptr, ptr, ptr, ptr, ptr }
%struct.PyModuleDef_Base = type { %struct._object, ptr, i64, ptr }
%struct.anon = type { i32, i32 }
%struct.PyModuleDef_Slot = type { i32, ptr }

@PyExc_SystemError = external global ptr, align 8
@.str.13 = private unnamed_addr constant [59 x i8] c"execution of module %s failed without setting an exception\00", align 1
@.str.14 = private unnamed_addr constant [51 x i8] c"execution of module %s raised unreported exception\00", align 1
@.str.15 = private unnamed_addr constant [43 x i8] c"module %s initialized with unknown slot %i\00", align 1

; Function Attrs: alwaysinline nounwind uwtable
define internal i32 @_Py_IsImmortal(ptr noundef %0) #4 {
  %2 = alloca ptr, align 8
  store ptr %0, ptr %2, align 8, !tbaa !4
  %3 = load ptr, ptr %2, align 8, !tbaa !4
  %4 = getelementptr inbounds nuw %struct._object, ptr %3, i32 0, i32 0
  %5 = getelementptr inbounds nuw %struct.anon, ptr %4, i32 0, i32 0
  %6 = load i32, ptr %5, align 8, !tbaa !26
  %7 = icmp slt i32 %6, 0
  %8 = zext i1 %7 to i32
  ret i32 %8
}

; Function Attrs: alwaysinline nounwind uwtable
define internal void @Py_DECREF(ptr noundef %0) #4 {
  %2 = alloca ptr, align 8
  store ptr %0, ptr %2, align 8, !tbaa !4
  %3 = load ptr, ptr %2, align 8, !tbaa !4
  %4 = call i32 @_Py_IsImmortal(ptr noundef %3)
  %5 = icmp ne i32 %4, 0
  br i1 %5, label %6, label %7

6:                                                ; preds = %1
  br label %16

7:                                                ; preds = %1
  %8 = load ptr, ptr %2, align 8, !tbaa !4
  %9 = getelementptr inbounds nuw %struct._object, ptr %8, i32 0, i32 0
  %10 = getelementptr inbounds nuw %struct.anon, ptr %9, i32 0, i32 0
  %11 = load i32, ptr %10, align 8, !tbaa !26
  %12 = add i32 %11, -1
  store i32 %12, ptr %10, align 8, !tbaa !26
  %13 = icmp eq i32 %12, 0
  br i1 %13, label %14, label %16

14:                                               ; preds = %7
  %15 = load ptr, ptr %2, align 8, !tbaa !4
  call void @_Py_Dealloc(ptr noundef %15)
  br label %16

16:                                               ; preds = %6, %14, %7
  ret void
}

; Function Attrs: nounwind uwtable
define dso_local ptr @PyModule_GetName(ptr noundef %0) #0 {
  %2 = alloca ptr, align 8
  %3 = alloca ptr, align 8
  %4 = alloca ptr, align 8
  %5 = alloca i32, align 4
  store ptr %0, ptr %3, align 8, !tbaa !4
  call void @llvm.lifetime.start.p0(i64 8, ptr %4) #9
  %6 = load ptr, ptr %3, align 8, !tbaa !4
  %7 = call ptr @PyModule_GetNameObject(ptr noundef %6)
  store ptr %7, ptr %4, align 8, !tbaa !4
  %8 = load ptr, ptr %4, align 8, !tbaa !4
  %9 = icmp eq ptr %8, null
  br i1 %9, label %10, label %11

10:                                               ; preds = %1
  store ptr null, ptr %2, align 8
  store i32 1, ptr %5, align 4
  br label %15

11:                                               ; preds = %1
  %12 = load ptr, ptr %4, align 8, !tbaa !4
  call void @Py_DECREF(ptr noundef %12)
  %13 = load ptr, ptr %4, align 8, !tbaa !4
  %14 = call ptr @PyUnicode_AsUTF8(ptr noundef %13)
  store ptr %14, ptr %2, align 8
  store i32 1, ptr %5, align 4
  br label %15

15:                                               ; preds = %11, %10
  call void @llvm.lifetime.end.p0(i64 8, ptr %4) #9
  %16 = load ptr, ptr %2, align 8
  ret ptr %16
}

; Function Attrs: nounwind uwtable
define dso_local i32 @PyModule_ExecDef(ptr noundef %0, ptr noundef %1) #0 {
  %3 = alloca i32, align 4
  %4 = alloca ptr, align 8
  %5 = alloca ptr, align 8
  %6 = alloca ptr, align 8
  %7 = alloca ptr, align 8
  %8 = alloca i32, align 4
  %9 = alloca i32, align 4
  %10 = alloca ptr, align 8
  store ptr %0, ptr %4, align 8, !tbaa !4
  store ptr %1, ptr %5, align 8, !tbaa !15
  call void @llvm.lifetime.start.p0(i64 8, ptr %6) #9
  call void @llvm.lifetime.start.p0(i64 8, ptr %7) #9
  call void @llvm.lifetime.start.p0(i64 4, ptr %8) #9
  %11 = load ptr, ptr %4, align 8, !tbaa !4
  %12 = call ptr @PyModule_GetName(ptr noundef %11)
  store ptr %12, ptr %7, align 8, !tbaa !34
  %13 = load ptr, ptr %7, align 8, !tbaa !34
  %14 = icmp eq ptr %13, null
  br i1 %14, label %15, label %16

15:                                               ; preds = %2
  store i32 -1, ptr %3, align 4
  store i32 1, ptr %9, align 4
  br label %112

16:                                               ; preds = %2
  %17 = load ptr, ptr %5, align 8, !tbaa !15
  %18 = getelementptr inbounds nuw %struct.PyModuleDef, ptr %17, i32 0, i32 3
  %19 = load i64, ptr %18, align 8, !tbaa !49
  %20 = icmp sge i64 %19, 0
  br i1 %20, label %21, label %51

21:                                               ; preds = %16
  call void @llvm.lifetime.start.p0(i64 8, ptr %10) #9
  %22 = load ptr, ptr %4, align 8, !tbaa !4
  store ptr %22, ptr %10, align 8, !tbaa !9
  %23 = load ptr, ptr %10, align 8, !tbaa !9
  %24 = getelementptr inbounds nuw %struct.PyModuleObject, ptr %23, i32 0, i32 3
  %25 = load ptr, ptr %24, align 8, !tbaa !29
  %26 = icmp eq ptr %25, null
  br i1 %26, label %27, label %47

27:                                               ; preds = %21
  %28 = load ptr, ptr %5, align 8, !tbaa !15
  %29 = getelementptr inbounds nuw %struct.PyModuleDef, ptr %28, i32 0, i32 3
  %30 = load i64, ptr %29, align 8, !tbaa !49
  %31 = call ptr @PyMem_Malloc(i64 noundef %30)
  %32 = load ptr, ptr %10, align 8, !tbaa !9
  %33 = getelementptr inbounds nuw %struct.PyModuleObject, ptr %32, i32 0, i32 3
  store ptr %31, ptr %33, align 8, !tbaa !29
  %34 = load ptr, ptr %10, align 8, !tbaa !9
  %35 = getelementptr inbounds nuw %struct.PyModuleObject, ptr %34, i32 0, i32 3
  %36 = load ptr, ptr %35, align 8, !tbaa !29
  %37 = icmp ne ptr %36, null
  br i1 %37, label %40, label %38

38:                                               ; preds = %27
  %39 = call ptr @PyErr_NoMemory()
  store i32 -1, ptr %3, align 4
  store i32 1, ptr %9, align 4
  br label %48

40:                                               ; preds = %27
  %41 = load ptr, ptr %10, align 8, !tbaa !9
  %42 = getelementptr inbounds nuw %struct.PyModuleObject, ptr %41, i32 0, i32 3
  %43 = load ptr, ptr %42, align 8, !tbaa !29
  %44 = load ptr, ptr %5, align 8, !tbaa !15
  %45 = getelementptr inbounds nuw %struct.PyModuleDef, ptr %44, i32 0, i32 3
  %46 = load i64, ptr %45, align 8, !tbaa !49
  call void @llvm.memset.p0.i64(ptr align 1 %43, i8 0, i64 %46, i1 false)
  br label %47

47:                                               ; preds = %40, %21
  store i32 0, ptr %9, align 4
  br label %48

48:                                               ; preds = %47, %38
  call void @llvm.lifetime.end.p0(i64 8, ptr %10) #9
  %49 = load i32, ptr %9, align 4
  switch i32 %49, label %112 [
    i32 0, label %50
  ]

50:                                               ; preds = %48
  br label %51

51:                                               ; preds = %50, %16
  %52 = load ptr, ptr %5, align 8, !tbaa !15
  %53 = getelementptr inbounds nuw %struct.PyModuleDef, ptr %52, i32 0, i32 5
  %54 = load ptr, ptr %53, align 8, !tbaa !48
  %55 = icmp eq ptr %54, null
  br i1 %55, label %56, label %57

56:                                               ; preds = %51
  store i32 0, ptr %3, align 4
  store i32 1, ptr %9, align 4
  br label %112

57:                                               ; preds = %51
  %58 = load ptr, ptr %5, align 8, !tbaa !15
  %59 = getelementptr inbounds nuw %struct.PyModuleDef, ptr %58, i32 0, i32 5
  %60 = load ptr, ptr %59, align 8, !tbaa !48
  store ptr %60, ptr %6, align 8, !tbaa !53
  br label %61

61:                                               ; preds = %108, %57
  %62 = load ptr, ptr %6, align 8, !tbaa !53
  %63 = icmp ne ptr %62, null
  br i1 %63, label %64, label %69

64:                                               ; preds = %61
  %65 = load ptr, ptr %6, align 8, !tbaa !53
  %66 = getelementptr inbounds nuw %struct.PyModuleDef_Slot, ptr %65, i32 0, i32 0
  %67 = load i32, ptr %66, align 8, !tbaa !54
  %68 = icmp ne i32 %67, 0
  br label %69

69:                                               ; preds = %64, %61
  %70 = phi i1 [ false, %61 ], [ %68, %64 ]
  br i1 %70, label %71, label %111

71:                                               ; preds = %69
  %72 = load ptr, ptr %6, align 8, !tbaa !53
  %73 = getelementptr inbounds nuw %struct.PyModuleDef_Slot, ptr %72, i32 0, i32 0
  %74 = load i32, ptr %73, align 8, !tbaa !54
  switch i32 %74, label %100 [
    i32 1, label %107
    i32 2, label %75
    i32 3, label %99
    i32 4, label %99
  ]

75:                                               ; preds = %71
  %76 = load ptr, ptr %6, align 8, !tbaa !53
  %77 = getelementptr inbounds nuw %struct.PyModuleDef_Slot, ptr %76, i32 0, i32 1
  %78 = load ptr, ptr %77, align 8, !tbaa !56
  %79 = load ptr, ptr %4, align 8, !tbaa !4
  %80 = call i32 %78(ptr noundef %79)
  store i32 %80, ptr %8, align 4, !tbaa !35
  %81 = load i32, ptr %8, align 4, !tbaa !35
  %82 = icmp ne i32 %81, 0
  br i1 %82, label %83, label %91

83:                                               ; preds = %75
  %84 = call ptr @PyErr_Occurred()
  %85 = icmp ne ptr %84, null
  br i1 %85, label %90, label %86

86:                                               ; preds = %83
  %87 = load ptr, ptr @PyExc_SystemError, align 8, !tbaa !4
  %88 = load ptr, ptr %7, align 8, !tbaa !34
  %89 = call ptr (ptr, ptr, ...) @PyErr_Format(ptr noundef %87, ptr noundef @.str.13, ptr noundef %88)
  br label %90

90:                                               ; preds = %86, %83
  store i32 -1, ptr %3, align 4
  store i32 1, ptr %9, align 4
  br label %112

91:                                               ; preds = %75
  %92 = call ptr @PyErr_Occurred()
  %93 = icmp ne ptr %92, null
  br i1 %93, label %94, label %98

94:                                               ; preds = %91
  %95 = load ptr, ptr @PyExc_SystemError, align 8, !tbaa !4
  %96 = load ptr, ptr %7, align 8, !tbaa !34
  %97 = call ptr (ptr, ptr, ...) @_PyErr_FormatFromCause(ptr noundef %95, ptr noundef @.str.14, ptr noundef %96)
  store i32 -1, ptr %3, align 4
  store i32 1, ptr %9, align 4
  br label %112

98:                                               ; preds = %91
  br label %107

99:                                               ; preds = %71, %71
  br label %107

100:                                              ; preds = %71
  %101 = load ptr, ptr @PyExc_SystemError, align 8, !tbaa !4
  %102 = load ptr, ptr %7, align 8, !tbaa !34
  %103 = load ptr, ptr %6, align 8, !tbaa !53
  %104 = getelementptr inbounds nuw %struct.PyModuleDef_Slot, ptr %103, i32 0, i32 0
  %105 = load i32, ptr %104, align 8, !tbaa !54
  %106 = call ptr (ptr, ptr, ...) @PyErr_Format(ptr noundef %101, ptr noundef @.str.15, ptr noundef %102, i32 noundef %105)
  store i32 -1, ptr %3, align 4
  store i32 1, ptr %9, align 4
  br label %112

107:                                              ; preds = %99, %98, %71
  br label %108

108:                                              ; preds = %107
  %109 = load ptr, ptr %6, align 8, !tbaa !53
  %110 = getelementptr %struct.PyModuleDef_Slot, ptr %109, i32 1
  store ptr %110, ptr %6, align 8, !tbaa !53
  br label %61, !llvm.loop !135

111:                                              ; preds = %69
  store i32 0, ptr %3, align 4
  store i32 1, ptr %9, align 4
  br label %112

112:                                              ; preds = %111, %100, %94, %90, %56, %48, %15
  call void @llvm.lifetime.end.p0(i64 4, ptr %8) #9
  call void @llvm.lifetime.end.p0(i64 8, ptr %7) #9
  call void @llvm.lifetime.end.p0(i64 8, ptr %6) #9
  %113 = load i32, ptr %3, align 4
  ret i32 %113
}