; Function Attrs: nounwind uwtable
define dso_local range(i32 -1, 1) i32 @PyModule_ExecDef(ptr noundef %0, ptr noundef readonly captures(none) %1) local_unnamed_addr #0 {
  %3 = tail call ptr @PyModule_GetNameObject(ptr noundef readonly %0)
  %4 = icmp eq ptr %3, null
  br i1 %4, label %.critedge, label %5

5:                                                ; preds = %2
  %6 = load i32, ptr %3, align 8, !tbaa !22
  %.not.i.i = icmp sgt i32 %6, -1
  br i1 %.not.i.i, label %7, label %PyModule_GetName.exit

7:                                                ; preds = %5
  %8 = add nsw i32 %6, -1
  store i32 %8, ptr %3, align 8, !tbaa !22
  %9 = icmp eq i32 %8, 0
  br i1 %9, label %10, label %PyModule_GetName.exit

10:                                               ; preds = %7
  tail call void @_Py_Dealloc(ptr noundef nonnull %3) #8
  br label %PyModule_GetName.exit

PyModule_GetName.exit:                            ; preds = %5, %7, %10
  %11 = tail call ptr @PyUnicode_AsUTF8(ptr noundef nonnull %3) #8
  %12 = icmp eq ptr %11, null
  br i1 %12, label %.critedge, label %13

13:                                               ; preds = %PyModule_GetName.exit
  %14 = getelementptr inbounds nuw i8, ptr %1, i64 56
  %15 = load i64, ptr %14, align 8, !tbaa !39
  %16 = icmp sgt i64 %15, -1
  br i1 %16, label %17, label %26

17:                                               ; preds = %13
  %18 = getelementptr inbounds nuw i8, ptr %0, i64 32
  %19 = load ptr, ptr %18, align 8, !tbaa !40
  %20 = icmp eq ptr %19, null
  br i1 %20, label %21, label %26

21:                                               ; preds = %17
  %22 = tail call ptr @PyMem_Malloc(i64 noundef %15) #8
  store ptr %22, ptr %18, align 8, !tbaa !40
  %.not = icmp eq ptr %22, null
  br i1 %.not, label %.critedge37, label %24

.critedge37:                                      ; preds = %21
  %23 = tail call ptr @PyErr_NoMemory() #8
  br label %.critedge

24:                                               ; preds = %21
  %25 = load i64, ptr %14, align 8, !tbaa !39
  tail call void @llvm.memset.p0.i64(ptr nonnull align 1 %22, i8 0, i64 %25, i1 false)
  br label %26

26:                                               ; preds = %24, %17, %13
  %27 = getelementptr inbounds nuw i8, ptr %1, i64 72
  %28 = load ptr, ptr %27, align 8, !tbaa !38
  %29 = icmp eq ptr %28, null
  br i1 %29, label %.critedge, label %.preheader

.preheader:                                       ; preds = %26, %47
  %.02541 = phi ptr [ %48, %47 ], [ %28, %26 ]
  %30 = load i32, ptr %.02541, align 8, !tbaa !42
  switch i32 %30, label %44 [
    i32 0, label %.critedge
    i32 1, label %47
    i32 2, label %31
    i32 3, label %47
    i32 4, label %47
  ]

31:                                               ; preds = %.preheader
  %32 = getelementptr inbounds nuw i8, ptr %.02541, i64 8
  %33 = load ptr, ptr %32, align 8, !tbaa !44
  %34 = tail call i32 %33(ptr noundef %0) #8
  %.not33 = icmp eq i32 %34, 0
  %35 = tail call ptr @PyErr_Occurred() #8
  %.not34 = icmp eq ptr %35, null
  br i1 %.not33, label %40, label %36

36:                                               ; preds = %31
  br i1 %.not34, label %37, label %.critedge

37:                                               ; preds = %36
  %38 = load ptr, ptr @PyExc_SystemError, align 8, !tbaa !24
  %39 = tail call ptr (ptr, ptr, ...) @PyErr_Format(ptr noundef %38, ptr noundef nonnull @.str.13, ptr noundef nonnull %11) #8
  br label %.critedge

40:                                               ; preds = %31
  br i1 %.not34, label %47, label %41

41:                                               ; preds = %40
  %42 = load ptr, ptr @PyExc_SystemError, align 8, !tbaa !24
  %43 = tail call ptr (ptr, ptr, ...) @_PyErr_FormatFromCause(ptr noundef %42, ptr noundef nonnull @.str.14, ptr noundef nonnull %11) #8
  br label %.critedge

44:                                               ; preds = %.preheader
  %45 = load ptr, ptr @PyExc_SystemError, align 8, !tbaa !24
  %46 = tail call ptr (ptr, ptr, ...) @PyErr_Format(ptr noundef %45, ptr noundef nonnull @.str.15, ptr noundef nonnull %11, i32 noundef %30) #8
  br label %.critedge

47:                                               ; preds = %.preheader, %.preheader, %.preheader, %40
  %48 = getelementptr i8, ptr %.02541, i64 16
  %.not31 = icmp eq ptr %48, null
  br i1 %.not31, label %.critedge, label %.preheader, !llvm.loop !208

.critedge:                                        ; preds = %47, %.preheader, %2, %36, %37, %26, %.critedge37, %PyModule_GetName.exit, %44, %41
  %.0 = phi i32 [ -1, %44 ], [ -1, %41 ], [ -1, %PyModule_GetName.exit ], [ -1, %.critedge37 ], [ 0, %26 ], [ -1, %37 ], [ -1, %36 ], [ -1, %2 ], [ 0, %47 ], [ %30, %.preheader ]
  ret i32 %.0
}